; ModuleID = 'source-C-CXX/57/821.cpp'
source_filename = "source-C-CXX/57/821.cpp"
target datalayout = "e-m:e-p270:32:32-p271:32:32-p272:64:64-i64:64-f80:128-n8:16:32:64-S128"
target triple = "x86_64-pc-linux-gnu"

%"class.std::ios_base::Init" = type { i8 }
%"class.std::basic_istream" = type { i32 (...)**, i64, %"class.std::basic_ios" }
%"class.std::basic_ios" = type { %"class.std::ios_base", %"class.std::basic_ostream"*, i8, i8, %"class.std::basic_streambuf"*, %"class.std::ctype"*, %"class.std::num_put"*, %"class.std::num_get"* }
%"class.std::ios_base" = type { i32 (...)**, i64, i64, i32, i32, i32, %"struct.std::ios_base::_Callback_list"*, %"struct.std::ios_base::_Words", [8 x %"struct.std::ios_base::_Words"], i32, %"struct.std::ios_base::_Words"*, %"class.std::locale" }
%"struct.std::ios_base::_Callback_list" = type { %"struct.std::ios_base::_Callback_list"*, void (i32, %"class.std::ios_base"*, i32)*, i32, i32 }
%"struct.std::ios_base::_Words" = type { i8*, i64 }
%"class.std::locale" = type { %"class.std::locale::_Impl"* }
%"class.std::locale::_Impl" = type { i32, %"class.std::locale::facet"**, i64, %"class.std::locale::facet"**, i8** }
%"class.std::locale::facet" = type <{ i32 (...)**, i32, [4 x i8] }>
%"class.std::basic_ostream" = type { i32 (...)**, %"class.std::basic_ios" }
%"class.std::basic_streambuf" = type { i32 (...)**, i8*, i8*, i8*, i8*, i8*, i8*, %"class.std::locale" }
%"class.std::ctype" = type <{ %"class.std::locale::facet.base", [4 x i8], %struct.__locale_struct*, i8, [7 x i8], i32*, i32*, i16*, i8, [256 x i8], [256 x i8], i8, [6 x i8] }>
%"class.std::locale::facet.base" = type <{ i32 (...)**, i32 }>
%struct.__locale_struct = type { [13 x %struct.__locale_data*], i16*, i32*, i32*, [13 x i8*] }
%struct.__locale_data = type opaque
%"class.std::num_put" = type { %"class.std::locale::facet.base", [4 x i8] }
%"class.std::num_get" = type { %"class.std::locale::facet.base", [4 x i8] }
%struct._IO_FILE = type { i32, i8*, i8*, i8*, i8*, i8*, i8*, i8*, i8*, i8*, i8*, i8*, %struct._IO_marker*, %struct._IO_FILE*, i32, i32, i64, i16, i8, [1 x i8], i8*, i64, %struct._IO_codecvt*, %struct._IO_wide_data*, %struct._IO_FILE*, i8*, i64, i32, [20 x i8] }
%struct._IO_marker = type opaque
%struct._IO_codecvt = type opaque
%struct._IO_wide_data = type opaque

@_ZStL8__ioinit = internal global %"class.std::ios_base::Init" zeroinitializer, align 1
@__dso_handle = external hidden global i8
@_ZSt3cin = external global %"class.std::basic_istream", align 8
@_ZSt4cout = external global %"class.std::basic_ostream", align 8
@stdin = external local_unnamed_addr global %struct._IO_FILE*, align 8
@llvm.global_ctors = appending global [1 x { i32, void ()*, i8* }] [{ i32, void ()*, i8* } { i32 65535, void ()* @_GLOBAL__sub_I_821.cpp, i8* null }]

declare void @_ZNSt8ios_base4InitC1Ev(%"class.std::ios_base::Init"* nonnull align 1 dereferenceable(1)) unnamed_addr #0

; Function Attrs: nounwind
declare void @_ZNSt8ios_base4InitD1Ev(%"class.std::ios_base::Init"* nonnull align 1 dereferenceable(1)) unnamed_addr #1

; Function Attrs: nofree nounwind
declare i32 @__cxa_atexit(void (i8*)*, i8*, i8*) local_unnamed_addr #2

; Function Attrs: mustprogress norecurse sspstrong uwtable
define dso_local i32 @main() local_unnamed_addr #3 {
  %1 = alloca i32, align 4
  %2 = alloca [1000 x i8], align 16
  %3 = bitcast i32* %1 to i8*
  call void @llvm.lifetime.start.p0i8(i64 4, i8* nonnull %3) #10
  %4 = getelementptr inbounds [1000 x i8], [1000 x i8]* %2, i64 0, i64 0
  call void @llvm.lifetime.start.p0i8(i64 1000, i8* nonnull %4) #10
  %5 = call nonnull align 8 dereferenceable(16) %"class.std::basic_istream"* @_ZNSirsERi(%"class.std::basic_istream"* nonnull align 8 dereferenceable(16) @_ZSt3cin, i32* nonnull align 4 dereferenceable(4) %1)
  %6 = load %struct._IO_FILE*, %struct._IO_FILE** @stdin, align 8, !tbaa !5
  %7 = call i32 @getc(%struct._IO_FILE* %6)
  %8 = load i32, i32* %1, align 4, !tbaa !9
  %9 = icmp slt i32 %8, 1
  br i1 %9, label %76, label %10

10:                                               ; preds = %0, %69
  %11 = phi i32 [ %73, %69 ], [ 1, %0 ]
  %12 = call nonnull align 8 dereferenceable(16) %"class.std::basic_istream"* @_ZNSi7getlineEPclc(%"class.std::basic_istream"* nonnull align 8 dereferenceable(16) @_ZSt3cin, i8* nonnull %4, i64 800, i8 signext 10)
  %13 = load i8, i8* %4, align 16, !tbaa !11
  %14 = add i8 %13, -65
  %15 = icmp ult i8 %14, 26
  br i1 %15, label %21, label %16

16:                                               ; preds = %10
  %17 = add i8 %13, -97
  %18 = icmp ult i8 %17, 26
  %19 = icmp eq i8 %13, 95
  %20 = or i1 %19, %18
  br i1 %20, label %21, label %41

21:                                               ; preds = %16, %10
  %22 = call i64 @strlen(i8* noundef nonnull %4) #11
  %23 = icmp eq i64 %22, 1
  br i1 %23, label %41, label %24

24:                                               ; preds = %21, %38
  %25 = phi i64 [ %39, %38 ], [ 1, %21 ]
  %26 = getelementptr inbounds [1000 x i8], [1000 x i8]* %2, i64 0, i64 %25
  %27 = load i8, i8* %26, align 1, !tbaa !11
  %28 = add i8 %27, -65
  %29 = icmp ult i8 %28, 26
  br i1 %29, label %38, label %30

30:                                               ; preds = %24
  %31 = add i8 %27, -97
  %32 = icmp ult i8 %31, 26
  %33 = icmp eq i8 %27, 95
  %34 = or i1 %33, %32
  %35 = add i8 %27, -48
  %36 = icmp ult i8 %35, 10
  %37 = or i1 %36, %34
  br i1 %37, label %38, label %41

38:                                               ; preds = %30, %24
  %39 = add nuw i64 %25, 1
  %40 = icmp eq i64 %39, %22
  br i1 %40, label %41, label %24, !llvm.loop !12

41:                                               ; preds = %30, %38, %16, %21
  %42 = phi i32 [ 0, %16 ], [ 1, %21 ], [ 0, %30 ], [ 1, %38 ]
  %43 = call nonnull align 8 dereferenceable(8) %"class.std::basic_ostream"* @_ZNSolsEi(%"class.std::basic_ostream"* nonnull align 8 dereferenceable(8) @_ZSt4cout, i32 %42)
  %44 = bitcast %"class.std::basic_ostream"* %43 to i8**
  %45 = load i8*, i8** %44, align 8, !tbaa !14
  %46 = getelementptr i8, i8* %45, i64 -24
  %47 = bitcast i8* %46 to i64*
  %48 = load i64, i64* %47, align 8
  %49 = bitcast %"class.std::basic_ostream"* %43 to i8*
  %50 = add nsw i64 %48, 240
  %51 = getelementptr inbounds i8, i8* %49, i64 %50
  %52 = bitcast i8* %51 to %"class.std::ctype"**
  %53 = load %"class.std::ctype"*, %"class.std::ctype"** %52, align 8, !tbaa !16
  %54 = icmp eq %"class.std::ctype"* %53, null
  br i1 %54, label %55, label %56

55:                                               ; preds = %41
  call void @_ZSt16__throw_bad_castv() #12
  unreachable

56:                                               ; preds = %41
  %57 = getelementptr inbounds %"class.std::ctype", %"class.std::ctype"* %53, i64 0, i32 8
  %58 = load i8, i8* %57, align 8, !tbaa !19
  %59 = icmp eq i8 %58, 0
  br i1 %59, label %63, label %60

60:                                               ; preds = %56
  %61 = getelementptr inbounds %"class.std::ctype", %"class.std::ctype"* %53, i64 0, i32 9, i64 10
  %62 = load i8, i8* %61, align 1, !tbaa !11
  br label %69

63:                                               ; preds = %56
  call void @_ZNKSt5ctypeIcE13_M_widen_initEv(%"class.std::ctype"* nonnull align 8 dereferenceable(570) %53)
  %64 = bitcast %"class.std::ctype"* %53 to i8 (%"class.std::ctype"*, i8)***
  %65 = load i8 (%"class.std::ctype"*, i8)**, i8 (%"class.std::ctype"*, i8)*** %64, align 8, !tbaa !14
  %66 = getelementptr inbounds i8 (%"class.std::ctype"*, i8)*, i8 (%"class.std::ctype"*, i8)** %65, i64 6
  %67 = load i8 (%"class.std::ctype"*, i8)*, i8 (%"class.std::ctype"*, i8)** %66, align 8
  %68 = call signext i8 %67(%"class.std::ctype"* nonnull align 8 dereferenceable(570) %53, i8 signext 10)
  br label %69

69:                                               ; preds = %60, %63
  %70 = phi i8 [ %62, %60 ], [ %68, %63 ]
  %71 = call nonnull align 8 dereferenceable(8) %"class.std::basic_ostream"* @_ZNSo3putEc(%"class.std::basic_ostream"* nonnull align 8 dereferenceable(8) %43, i8 signext %70)
  %72 = call nonnull align 8 dereferenceable(8) %"class.std::basic_ostream"* @_ZNSo5flushEv(%"class.std::basic_ostream"* nonnull align 8 dereferenceable(8) %71)
  store i8 0, i8* %4, align 16, !tbaa !11
  %73 = add nuw nsw i32 %11, 1
  %74 = load i32, i32* %1, align 4, !tbaa !9
  %75 = icmp slt i32 %11, %74
  br i1 %75, label %10, label %76, !llvm.loop !21

76:                                               ; preds = %69, %0
  call void @llvm.lifetime.end.p0i8(i64 1000, i8* nonnull %4) #10
  call void @llvm.lifetime.end.p0i8(i64 4, i8* nonnull %3) #10
  ret i32 0
}

; Function Attrs: argmemonly mustprogress nofree nosync nounwind willreturn
declare void @llvm.lifetime.start.p0i8(i64 immarg, i8* nocapture) #4

declare nonnull align 8 dereferenceable(16) %"class.std::basic_istream"* @_ZNSirsERi(%"class.std::basic_istream"* nonnull align 8 dereferenceable(16), i32* nonnull align 4 dereferenceable(4)) local_unnamed_addr #0

declare nonnull align 8 dereferenceable(16) %"class.std::basic_istream"* @_ZNSi7getlineEPclc(%"class.std::basic_istream"* nonnull align 8 dereferenceable(16), i8*, i64, i8 signext) local_unnamed_addr #0

; Function Attrs: mustprogress nofree nounwind readonly sspstrong uwtable willreturn
define dso_local i32 @_Z2ffPc(i8* nocapture readonly %0) local_unnamed_addr #5 {
  %2 = load i8, i8* %0, align 1, !tbaa !11
  %3 = add i8 %2, -65
  %4 = icmp ult i8 %3, 26
  br i1 %4, label %10, label %5

5:                                                ; preds = %1
  %6 = add i8 %2, -97
  %7 = icmp ult i8 %6, 26
  %8 = icmp eq i8 %2, 95
  %9 = or i1 %8, %7
  br i1 %9, label %10, label %30

10:                                               ; preds = %5, %1
  %11 = tail call i64 @strlen(i8* noundef nonnull %0) #11
  %12 = icmp eq i64 %11, 1
  br i1 %12, label %30, label %13

13:                                               ; preds = %10, %27
  %14 = phi i64 [ %28, %27 ], [ 1, %10 ]
  %15 = getelementptr inbounds i8, i8* %0, i64 %14
  %16 = load i8, i8* %15, align 1, !tbaa !11
  %17 = add i8 %16, -65
  %18 = icmp ult i8 %17, 26
  br i1 %18, label %27, label %19

19:                                               ; preds = %13
  %20 = add i8 %16, -97
  %21 = icmp ult i8 %20, 26
  %22 = icmp eq i8 %16, 95
  %23 = or i1 %22, %21
  %24 = add i8 %16, -48
  %25 = icmp ult i8 %24, 10
  %26 = or i1 %25, %23
  br i1 %26, label %27, label %30

27:                                               ; preds = %19, %13
  %28 = add nuw i64 %14, 1
  %29 = icmp eq i64 %28, %11
  br i1 %29, label %30, label %13, !llvm.loop !12

30:                                               ; preds = %27, %19, %10, %5
  %31 = phi i32 [ 0, %5 ], [ 1, %10 ], [ 1, %27 ], [ 0, %19 ]
  ret i32 %31
}

declare nonnull align 8 dereferenceable(8) %"class.std::basic_ostream"* @_ZNSolsEi(%"class.std::basic_ostream"* nonnull align 8 dereferenceable(8), i32) local_unnamed_addr #0

; Function Attrs: argmemonly mustprogress nofree nosync nounwind willreturn
declare void @llvm.lifetime.end.p0i8(i64 immarg, i8* nocapture) #4

; Function Attrs: argmemonly mustprogress nofree nounwind readonly willreturn
declare i64 @strlen(i8* nocapture) local_unnamed_addr #6

; Function Attrs: nofree nounwind
declare noundef i32 @getc(%struct._IO_FILE* nocapture noundef) local_unnamed_addr #7

declare nonnull align 8 dereferenceable(8) %"class.std::basic_ostream"* @_ZNSo3putEc(%"class.std::basic_ostream"* nonnull align 8 dereferenceable(8), i8 signext) local_unnamed_addr #0

declare nonnull align 8 dereferenceable(8) %"class.std::basic_ostream"* @_ZNSo5flushEv(%"class.std::basic_ostream"* nonnull align 8 dereferenceable(8)) local_unnamed_addr #0

; Function Attrs: noreturn
declare void @_ZSt16__throw_bad_castv() local_unnamed_addr #8

declare void @_ZNKSt5ctypeIcE13_M_widen_initEv(%"class.std::ctype"* nonnull align 8 dereferenceable(570)) local_unnamed_addr #0

; Function Attrs: sspstrong uwtable
define internal void @_GLOBAL__sub_I_821.cpp() #9 section ".text.startup" {
  tail call void @_ZNSt8ios_base4InitC1Ev(%"class.std::ios_base::Init"* nonnull align 1 dereferenceable(1) @_ZStL8__ioinit)
  %1 = tail call i32 @__cxa_atexit(void (i8*)* bitcast (void (%"class.std::ios_base::Init"*)* @_ZNSt8ios_base4InitD1Ev to void (i8*)*), i8* getelementptr inbounds (%"class.std::ios_base::Init", %"class.std::ios_base::Init"* @_ZStL8__ioinit, i64 0, i32 0), i8* nonnull @__dso_handle) #10
  ret void
}


!llvm.module.flags = !{!0, !1, !2, !3}
!llvm.ident = !{!4}

!0 = !{i32 1, !"wchar_size", i32 4}
!1 = !{i32 7, !"PIC Level", i32 2}
!2 = !{i32 7, !"PIE Level", i32 2}
!3 = !{i32 7, !"uwtable", i32 1}
!4 = !{!"clang version 13.0.0"}
!5 = !{!6, !6, i64 0}
!6 = !{!"any pointer", !7, i64 0}
!7 = !{!"omnipotent char", !8, i64 0}
!8 = !{!"Simple C++ TBAA"}
!9 = !{!10, !10, i64 0}
!10 = !{!"int", !7, i64 0}
!11 = !{!7, !7, i64 0}
!12 = distinct !{!12, !13}
!13 = !{!"llvm.loop.mustprogress"}
!14 = !{!15, !15, i64 0}
!15 = !{!"vtable pointer", !8, i64 0}
!16 = !{!17, !6, i64 240}
!17 = !{!"_ZTSSt9basic_iosIcSt11char_traitsIcEE", !6, i64 216, !7, i64 224, !18, i64 225, !6, i64 232, !6, i64 240, !6, i64 248, !6, i64 256}
!18 = !{!"bool", !7, i64 0}
!19 = !{!20, !7, i64 56}
!20 = !{!"_ZTSSt5ctypeIcE", !6, i64 16, !18, i64 24, !6, i64 32, !6, i64 40, !6, i64 48, !7, i64 56, !7, i64 57, !7, i64 313, !7, i64 569}
!21 = distinct !{!21, !13}
